; ModuleID = '45/318.c'
source_filename = "45/318.c"
target datalayout = "e-m:e-p270:32:32-p271:32:32-p272:64:64-i64:64-f80:128-n8:16:32:64-S128"
target triple = "x86_64-pc-linux-gnu"

@.str = private unnamed_addr constant [6 x i8] c"%s %s\00", align 1
@.str.1 = private unnamed_addr constant [4 x i8] c"%d\0A\00", align 1

; Function Attrs: noinline nounwind uwtable
define dso_local void @main() #0 {
  %1 = alloca [50 x i8], align 16
  %2 = alloca [50 x i8], align 16
  %3 = alloca i32, align 4
  %4 = alloca i32, align 4
  %5 = alloca i32, align 4
  store i32 0, i32* %3, align 4
  store i32 0, i32* %4, align 4
  store i32 0, i32* %5, align 4
  store i32 0, i32* %3, align 4
  br label %6

6:                                                ; preds = %16, %0
  %7 = load i32, i32* %3, align 4
  %8 = icmp slt i32 %7, 50
  br i1 %8, label %9, label %19

9:                                                ; preds = %6
  %10 = load i32, i32* %3, align 4
  %11 = sext i32 %10 to i64
  %12 = getelementptr inbounds [50 x i8], [50 x i8]* %1, i64 0, i64 %11
  store i8 0, i8* %12, align 1
  %13 = load i32, i32* %3, align 4
  %14 = sext i32 %13 to i64
  %15 = getelementptr inbounds [50 x i8], [50 x i8]* %2, i64 0, i64 %14
  store i8 0, i8* %15, align 1
  br label %16

16:                                               ; preds = %9
  %17 = load i32, i32* %3, align 4
  %18 = add nsw i32 %17, 1
  store i32 %18, i32* %3, align 4
  br label %6

19:                                               ; preds = %6
  %20 = getelementptr inbounds [50 x i8], [50 x i8]* %1, i64 0, i64 0
  %21 = getelementptr inbounds [50 x i8], [50 x i8]* %2, i64 0, i64 0
  %22 = call i32 (i8*, ...) @__isoc99_scanf(i8* getelementptr inbounds ([6 x i8], [6 x i8]* @.str, i64 0, i64 0), i8* %20, i8* %21)
  store i32 0, i32* %3, align 4
  br label %23

23:                                               ; preds = %80, %19
  %24 = load i32, i32* %3, align 4
  %25 = sext i32 %24 to i64
  %26 = getelementptr inbounds [50 x i8], [50 x i8]* %2, i64 0, i64 %25
  %27 = load i8, i8* %26, align 1
  %28 = icmp ne i8 %27, 0
  br i1 %28, label %29, label %83

29:                                               ; preds = %23
  %30 = load i32, i32* %3, align 4
  %31 = sext i32 %30 to i64
  %32 = getelementptr inbounds [50 x i8], [50 x i8]* %2, i64 0, i64 %31
  %33 = load i8, i8* %32, align 1
  %34 = sext i8 %33 to i32
  %35 = getelementptr inbounds [50 x i8], [50 x i8]* %1, i64 0, i64 0
  %36 = load i8, i8* %35, align 16
  %37 = sext i8 %36 to i32
  %38 = icmp eq i32 %34, %37
  br i1 %38, label %39, label %80

39:                                               ; preds = %29
  store i32 1, i32* %4, align 4
  %40 = load i32, i32* %3, align 4
  store i32 %40, i32* %5, align 4
  br label %41

41:                                               ; preds = %66, %39
  %42 = load i32, i32* %4, align 4
  %43 = sext i32 %42 to i64
  %44 = getelementptr inbounds [50 x i8], [50 x i8]* %1, i64 0, i64 %43
  %45 = load i8, i8* %44, align 1
  %46 = icmp ne i8 %45, 0
  br i1 %46, label %47, label %67

47:                                               ; preds = %41
  %48 = load i32, i32* %3, align 4
  %49 = add nsw i32 %48, 1
  %50 = sext i32 %49 to i64
  %51 = getelementptr inbounds [50 x i8], [50 x i8]* %2, i64 0, i64 %50
  %52 = load i8, i8* %51, align 1
  %53 = sext i8 %52 to i32
  %54 = load i32, i32* %4, align 4
  %55 = sext i32 %54 to i64
  %56 = getelementptr inbounds [50 x i8], [50 x i8]* %1, i64 0, i64 %55
  %57 = load i8, i8* %56, align 1
  %58 = sext i8 %57 to i32
  %59 = icmp eq i32 %53, %58
  br i1 %59, label %60, label %65

60:                                               ; preds = %47
  %61 = load i32, i32* %4, align 4
  %62 = add nsw i32 %61, 1
  store i32 %62, i32* %4, align 4
  %63 = load i32, i32* %3, align 4
  %64 = add nsw i32 %63, 1
  store i32 %64, i32* %3, align 4
  br label %66

65:                                               ; preds = %47
  br label %67

66:                                               ; preds = %60
  br label %41

67:                                               ; preds = %65, %41
  %68 = load i32, i32* %4, align 4
  %69 = sext i32 %68 to i64
  %70 = getelementptr inbounds [50 x i8], [50 x i8]* %1, i64 0, i64 %69
  %71 = load i8, i8* %70, align 1
  %72 = sext i8 %71 to i32
  %73 = icmp eq i32 %72, 0
  br i1 %73, label %74, label %77

74:                                               ; preds = %67
  %75 = load i32, i32* %5, align 4
  %76 = call i32 (i8*, ...) @printf(i8* getelementptr inbounds ([4 x i8], [4 x i8]* @.str.1, i64 0, i64 0), i32 %75)
  br label %83

77:                                               ; preds = %67
  %78 = load i32, i32* %5, align 4
  store i32 %78, i32* %3, align 4
  br label %79

79:                                               ; preds = %77
  br label %80

80:                                               ; preds = %79, %29
  %81 = load i32, i32* %3, align 4
  %82 = add nsw i32 %81, 1
  store i32 %82, i32* %3, align 4
  br label %23

83:                                               ; preds = %74, %23
  ret void
}

declare dso_local i32 @__isoc99_scanf(i8*, ...) #1

declare dso_local i32 @printf(i8*, ...) #1


!llvm.module.flags = !{!0}
!llvm.ident = !{!1}

!0 = !{i32 1, !"wchar_size", i32 4}
!1 = !{!"clang version 10.0.0-4ubuntu1 "}
