; ModuleID = 'source-C-CXX/44/318.c'
source_filename = "source-C-CXX/44/318.c"
target datalayout = "e-m:e-p270:32:32-p271:32:32-p272:64:64-i64:64-f80:128-n8:16:32:64-S128"
target triple = "x86_64-pc-linux-gnu"

@.str = private unnamed_addr constant [6 x i8] c"%s %s\00", align 1
@.str.1 = private unnamed_addr constant [4 x i8] c"%d\0A\00", align 1

; Function Attrs: nofree nounwind sspstrong uwtable
define dso_local void @main() local_unnamed_addr #0 {
  %1 = alloca [50 x i8], align 16
  %2 = getelementptr inbounds [50 x i8], [50 x i8]* %1, i64 0, i64 0
  %3 = alloca [50 x i8], align 16
  %4 = getelementptr inbounds [50 x i8], [50 x i8]* %3, i64 0, i64 0
  %5 = getelementptr inbounds [50 x i8], [50 x i8]* %1, i64 0, i64 0
  call void @llvm.lifetime.start.p0i8(i64 50, i8* nonnull %5) #4
  %6 = getelementptr inbounds [50 x i8], [50 x i8]* %3, i64 0, i64 0
  call void @llvm.lifetime.start.p0i8(i64 50, i8* nonnull %6) #4
  call void @llvm.memset.p0i8.i64(i8* noundef nonnull align 16 dereferenceable(50) %2, i8 0, i64 50, i1 false)
  call void @llvm.memset.p0i8.i64(i8* noundef nonnull align 16 dereferenceable(50) %4, i8 0, i64 50, i1 false)
  %7 = call i32 (i8*, ...) @__isoc99_scanf(i8* getelementptr inbounds ([6 x i8], [6 x i8]* @.str, i64 0, i64 0), i8* nonnull %5, i8* nonnull %6)
  %8 = load i8, i8* %5, align 16
  %9 = getelementptr inbounds [50 x i8], [50 x i8]* %1, i64 0, i64 1
  %10 = load i8, i8* %9, align 1
  %11 = load i8, i8* %6, align 16, !tbaa !5
  %12 = icmp eq i8 %11, 0
  br i1 %12, label %50, label %13

13:                                               ; preds = %0
  %14 = icmp eq i8 %10, 0
  br i1 %14, label %15, label %24

15:                                               ; preds = %13, %19
  %16 = phi i64 [ %20, %19 ], [ 0, %13 ]
  %17 = phi i8 [ %22, %19 ], [ %11, %13 ]
  %18 = icmp eq i8 %17, %8
  br i1 %18, label %41, label %19

19:                                               ; preds = %15
  %20 = add nuw i64 %16, 1
  %21 = getelementptr inbounds [50 x i8], [50 x i8]* %3, i64 0, i64 %20
  %22 = load i8, i8* %21, align 1, !tbaa !5
  %23 = icmp eq i8 %22, 0
  br i1 %23, label %50, label %15, !llvm.loop !8

24:                                               ; preds = %13, %45
  %25 = phi i64 [ %46, %45 ], [ 0, %13 ]
  %26 = phi i8 [ %48, %45 ], [ %11, %13 ]
  %27 = icmp eq i8 %26, %8
  br i1 %27, label %32, label %45

28:                                               ; preds = %32
  %29 = getelementptr inbounds [50 x i8], [50 x i8]* %1, i64 0, i64 %40
  %30 = load i8, i8* %29, align 1, !tbaa !5
  %31 = icmp eq i8 %30, 0
  br i1 %31, label %41, label %32, !llvm.loop !10

32:                                               ; preds = %24, %28
  %33 = phi i64 [ %36, %28 ], [ %25, %24 ]
  %34 = phi i64 [ %40, %28 ], [ 1, %24 ]
  %35 = phi i8 [ %30, %28 ], [ %10, %24 ]
  %36 = add nuw nsw i64 %33, 1
  %37 = getelementptr inbounds [50 x i8], [50 x i8]* %3, i64 0, i64 %36
  %38 = load i8, i8* %37, align 1, !tbaa !5
  %39 = icmp eq i8 %38, %35
  %40 = add nuw i64 %34, 1
  br i1 %39, label %28, label %45

41:                                               ; preds = %28, %15
  %42 = phi i64 [ %16, %15 ], [ %25, %28 ]
  %43 = trunc i64 %42 to i32
  %44 = call i32 (i8*, ...) @printf(i8* nonnull dereferenceable(1) getelementptr inbounds ([4 x i8], [4 x i8]* @.str.1, i64 0, i64 0), i32 %43)
  br label %50

45:                                               ; preds = %32, %24
  %46 = add nuw nsw i64 %25, 1
  %47 = getelementptr inbounds [50 x i8], [50 x i8]* %3, i64 0, i64 %46
  %48 = load i8, i8* %47, align 1, !tbaa !5
  %49 = icmp eq i8 %48, 0
  br i1 %49, label %50, label %24, !llvm.loop !8

50:                                               ; preds = %45, %19, %0, %41
  call void @llvm.lifetime.end.p0i8(i64 50, i8* nonnull %6) #4
  call void @llvm.lifetime.end.p0i8(i64 50, i8* nonnull %5) #4
  ret void
}

; Function Attrs: argmemonly mustprogress nofree nosync nounwind willreturn
declare void @llvm.lifetime.start.p0i8(i64 immarg, i8* nocapture) #1

; Function Attrs: nofree nounwind
declare noundef i32 @__isoc99_scanf(i8* nocapture noundef readonly, ...) local_unnamed_addr #2

; Function Attrs: nofree nounwind
declare noundef i32 @printf(i8* nocapture noundef readonly, ...) local_unnamed_addr #2

; Function Attrs: argmemonly mustprogress nofree nosync nounwind willreturn
declare void @llvm.lifetime.end.p0i8(i64 immarg, i8* nocapture) #1

; Function Attrs: argmemonly nofree nounwind willreturn writeonly
declare void @llvm.memset.p0i8.i64(i8* nocapture writeonly, i8, i64, i1 immarg) #3


!llvm.module.flags = !{!0, !1, !2, !3}
!llvm.ident = !{!4}

!0 = !{i32 1, !"wchar_size", i32 4}
!1 = !{i32 7, !"PIC Level", i32 2}
!2 = !{i32 7, !"PIE Level", i32 2}
!3 = !{i32 7, !"uwtable", i32 1}
!4 = !{!"clang version 13.0.0"}
!5 = !{!6, !6, i64 0}
!6 = !{!"omnipotent char", !7, i64 0}
!7 = !{!"Simple C/C++ TBAA"}
!8 = distinct !{!8, !9}
!9 = !{!"llvm.loop.mustprogress"}
!10 = distinct !{!10, !9}
